target datalayout = "e-m:e-p270:32:32-p271:32:32-p272:64:64-i64:64-i128:128-f80:128-n8:16:32:64-S128"
target triple = "x86_64-pc-linux-gnu"

%struct.node_record = type { ptr, ptr, i16, i64, i64, ptr, ptr, ptr, i16, ptr, i16, i16, i32, i32, i64, ptr, i16, i16, ptr, ptr, ptr, ptr, ptr, i64, i64, ptr, ptr, ptr, ptr, i32, ptr, ptr, i64, i64, i32, ptr, i64, ptr, i32, i16, ptr, ptr, i32, ptr, i32, i8, ptr, i32, i16, i16, ptr, i16, i64, i16, i64, ptr, i64, i32, i16, i64, i16, ptr, i16, i64, ptr, i64, i16, i32, i16, ptr, ptr, ptr, i16, i32, i16, i16, i32, ptr, i16, i32 }
%struct.job_record = type { i32, ptr, ptr, ptr, ptr, i16, i32, i32, i32, ptr, i32, ptr, ptr, i16, ptr, double, i64, ptr, ptr, ptr, ptr, ptr, ptr, i32, ptr, i32, i64, i64, i32, i32, ptr, i16, i64, i64, i8, i32, ptr, ptr, ptr, ptr, ptr, ptr, ptr, ptr, i32, ptr, ptr, i32, ptr, i32, ptr, i32, ptr, i32, ptr, ptr, ptr, ptr, ptr, ptr, i32, i16, i64, ptr, ptr, ptr, ptr, %struct.acct_policy_limit_set_t, i16, ptr, ptr, ptr, ptr, ptr, i32, ptr, ptr, ptr, ptr, ptr, i32, i32, ptr, ptr, ptr, i16, ptr, ptr, i8, ptr, ptr, i64, i64, i8, i32, i32, i8, i32, ptr, i32, i64, i32, ptr, ptr, ptr, i8, i16, i64, i32, ptr, ptr, ptr, ptr, ptr, i16, i32, ptr, ptr, ptr, ptr, i32, ptr, i32, i16, i64, ptr, i32, i32, ptr, i64, ptr, ptr, i64, i32, i32, i64, i32, i32, ptr, ptr, ptr, ptr, ptr, ptr, ptr, ptr, ptr, ptr, ptr, ptr, i32, ptr, i16, i16, i16, i16, ptr, i32, i32, i8, i64 }
%struct.acct_policy_limit_set_t = type { i16, i16, ptr }
%struct.job_details_t = type { i32, ptr, i64, ptr, i32, ptr, i64, ptr, i16, i16, ptr, i16, i32, i32, i32, i16, ptr, i16, ptr, ptr, ptr, i16, ptr, ptr, ptr, ptr, i32, ptr, ptr, ptr, ptr, ptr, i32, i32, i32, ptr, ptr, i16, i32, i32, i32, i32, i32, i32, i16, i16, i32, i8, i8, i32, i32, i64, i64, i16, i32, ptr, ptr, i8, ptr, i32, ptr, i64, ptr, ptr, i16, i16, i16, i8, ptr, ptr, ptr, ptr, ptr, ptr, i64, i32, i32, i8, ptr, i16, ptr, ptr, i16 }
%struct.part_record = type { i32, ptr, ptr, ptr, ptr, ptr, ptr, i32, ptr, ptr, ptr, ptr, ptr, i32, i64, i32, ptr, ptr, ptr, ptr, ptr, i32, i32, ptr, i32, i32, i64, i32, i32, i16, i32, i32, i32, i32, ptr, ptr, ptr, ptr, ptr, double, i16, i16, i16, i16, ptr, ptr, i16, i16, i32, i16, i32, i32, i32, i32, i16, ptr, ptr, ptr }
%struct.job_resources = type { ptr, ptr, i32, ptr, ptr, ptr, ptr, ptr, i16, ptr, ptr, i32, i32, ptr, i32, ptr, i32, ptr, ptr, ptr, i16, i8 }

; Function Attrs: nounwind uwtable
define dso_local void @node_mgr_make_node_blocked(ptr noundef %0, i1 noundef zeroext %1) #0 {
  %3 = alloca ptr, align 8
  %4 = alloca i8, align 1
  %5 = alloca ptr, align 8
  %6 = alloca ptr, align 8
  %7 = alloca i32, align 4
  %8 = alloca i32, align 4
  store ptr %0, ptr %3, align 8
  %9 = zext i1 %1 to i8
  store i8 %9, ptr %4, align 1
  call void @llvm.lifetime.start.p0(i64 8, ptr %5) #10
  call void @llvm.lifetime.start.p0(i64 8, ptr %6) #10
  %10 = load ptr, ptr %3, align 8
  %11 = getelementptr inbounds nuw %struct.job_record, ptr %10, i32 0, i32 30
  %12 = load ptr, ptr %11, align 8
  %13 = getelementptr inbounds nuw %struct.job_details_t, ptr %12, i32 0, i32 77
  %14 = load i8, ptr %13, align 8
  %15 = zext i8 %14 to i32
  %16 = and i32 %15, 8
  %17 = icmp ne i32 %16, 0
  br i1 %17, label %33, label %18

18:                                               ; preds = %2
  %19 = load ptr, ptr %3, align 8
  %20 = getelementptr inbounds nuw %struct.job_record, ptr %19, i32 0, i32 89
  %21 = load ptr, ptr %20, align 8
  %22 = icmp ne ptr %21, null
  br i1 %22, label %23, label %32

23:                                               ; preds = %18
  %24 = load ptr, ptr %3, align 8
  %25 = getelementptr inbounds nuw %struct.job_record, ptr %24, i32 0, i32 89
  %26 = load ptr, ptr %25, align 8
  %27 = getelementptr inbounds nuw %struct.part_record, ptr %26, i32 0, i32 21
  %28 = load i32, ptr %27, align 8
  %29 = zext i32 %28 to i64
  %30 = and i64 %29, 65536
  %31 = icmp ne i64 %30, 0
  br i1 %31, label %33, label %32

32:                                               ; preds = %23, %18
  store i32 1, ptr %7, align 4
  br label %95

33:                                               ; preds = %23, %2
  %34 = load ptr, ptr %3, align 8
  %35 = getelementptr inbounds nuw %struct.job_record, ptr %34, i32 0, i32 59
  %36 = load ptr, ptr %35, align 8
  %37 = icmp ne ptr %36, null
  br i1 %37, label %38, label %45

38:                                               ; preds = %33
  %39 = load ptr, ptr %3, align 8
  %40 = getelementptr inbounds nuw %struct.job_record, ptr %39, i32 0, i32 59
  %41 = load ptr, ptr %40, align 8
  %42 = getelementptr inbounds nuw %struct.job_resources, ptr %41, i32 0, i32 13
  %43 = load ptr, ptr %42, align 8
  %44 = icmp ne ptr %43, null
  br i1 %44, label %46, label %45

45:                                               ; preds = %38, %33
  store i32 1, ptr %7, align 4
  br label %95

46:                                               ; preds = %38
  %47 = load ptr, ptr %3, align 8
  %48 = getelementptr inbounds nuw %struct.job_record, ptr %47, i32 0, i32 59
  %49 = load ptr, ptr %48, align 8
  %50 = getelementptr inbounds nuw %struct.job_resources, ptr %49, i32 0, i32 13
  %51 = load ptr, ptr %50, align 8
  %52 = call ptr @bit_copy(ptr noundef %51)
  store ptr %52, ptr %5, align 8
  %53 = load ptr, ptr %5, align 8
  %54 = call i32 @topology_g_whole_topo(ptr noundef %53)
  %55 = load ptr, ptr %5, align 8
  %56 = load ptr, ptr %3, align 8
  %57 = getelementptr inbounds nuw %struct.job_record, ptr %56, i32 0, i32 59
  %58 = load ptr, ptr %57, align 8
  %59 = getelementptr inbounds nuw %struct.job_resources, ptr %58, i32 0, i32 13
  %60 = load ptr, ptr %59, align 8
  call void @bit_and_not(ptr noundef %55, ptr noundef %60)
  call void @llvm.lifetime.start.p0(i64 4, ptr %8) #10
  store i32 0, ptr %8, align 4
  br label %61

61:                                               ; preds = %84, %46
  %62 = load ptr, ptr %5, align 8
  %63 = call ptr @next_node_bitmap(ptr noundef %62, ptr noundef %8)
  store ptr %63, ptr %6, align 8
  %64 = icmp ne ptr %63, null
  br i1 %64, label %66, label %65

65:                                               ; preds = %61
  store i32 2, ptr %7, align 4
  call void @llvm.lifetime.end.p0(i64 4, ptr %8) #10
  br label %87

66:                                               ; preds = %61
  %67 = load i8, ptr %4, align 1, !range !11, !noundef !12
  %68 = trunc i8 %67 to i1
  br i1 %68, label %69, label %76

69:                                               ; preds = %66
  %70 = load ptr, ptr %6, align 8
  %71 = getelementptr inbounds nuw %struct.node_record, ptr %70, i32 0, i32 44
  %72 = load i32, ptr %71, align 8
  %73 = zext i32 %72 to i64
  %74 = or i64 %73, 134217728
  %75 = trunc i64 %74 to i32
  store i32 %75, ptr %71, align 8
  br label %83

76:                                               ; preds = %66
  %77 = load ptr, ptr %6, align 8
  %78 = getelementptr inbounds nuw %struct.node_record, ptr %77, i32 0, i32 44
  %79 = load i32, ptr %78, align 8
  %80 = zext i32 %79 to i64
  %81 = and i64 %80, -134217729
  %82 = trunc i64 %81 to i32
  store i32 %82, ptr %78, align 8
  br label %83

83:                                               ; preds = %76, %69
  br label %84

84:                                               ; preds = %83
  %85 = load i32, ptr %8, align 4
  %86 = add nsw i32 %85, 1
  store i32 %86, ptr %8, align 4
  br label %61, !llvm.loop !43

87:                                               ; preds = %65
  br label %88

88:                                               ; preds = %87
  %89 = load ptr, ptr %5, align 8
  %90 = icmp ne ptr %89, null
  br i1 %90, label %91, label %92

91:                                               ; preds = %88
  call void @slurm_bit_free(ptr noundef %5)
  br label %92

92:                                               ; preds = %91, %88
  store ptr null, ptr %5, align 8
  br label %93

93:                                               ; preds = %92
  br label %94

94:                                               ; preds = %93
  store i32 0, ptr %7, align 4
  br label %95

95:                                               ; preds = %94, %45, %32
  call void @llvm.lifetime.end.p0(i64 8, ptr %6) #10
  call void @llvm.lifetime.end.p0(i64 8, ptr %5) #10
  %96 = load i32, ptr %7, align 4
  switch i32 %96, label %98 [
    i32 0, label %97
    i32 1, label %97
  ]

97:                                               ; preds = %95, %95
  ret void

98:                                               ; preds = %95
  unreachable
}