; Function Attrs: nounwind uwtable
define dso_local void @node_mgr_make_node_blocked(ptr noundef readonly captures(none) %0, i1 noundef zeroext %1) local_unnamed_addr #0 {
  %3 = alloca ptr, align 8
  %4 = alloca i32, align 4
  call void @llvm.lifetime.start.p0(i64 8, ptr nonnull %3) #15
  %5 = getelementptr inbounds nuw i8, ptr %0, i64 216
  %6 = load ptr, ptr %5, align 8
  %7 = getelementptr inbounds nuw i8, ptr %6, i64 480
  %8 = load i8, ptr %7, align 8
  %9 = and i8 %8, 8
  %.not = icmp eq i8 %9, 0
  br i1 %.not, label %10, label %17

10:                                               ; preds = %2
  %11 = getelementptr inbounds nuw i8, ptr %0, i64 672
  %12 = load ptr, ptr %11, align 8
  %.not12 = icmp eq ptr %12, null
  br i1 %.not12, label %45, label %13

13:                                               ; preds = %10
  %14 = getelementptr inbounds nuw i8, ptr %12, i64 168
  %15 = load i32, ptr %14, align 8
  %16 = and i32 %15, 65536
  %.not13 = icmp eq i32 %16, 0
  br i1 %.not13, label %45, label %17

17:                                               ; preds = %13, %2
  %18 = getelementptr inbounds nuw i8, ptr %0, i64 440
  %19 = load ptr, ptr %18, align 8
  %.not14 = icmp eq ptr %19, null
  br i1 %.not14, label %45, label %20

20:                                               ; preds = %17
  %21 = getelementptr inbounds nuw i8, ptr %19, i64 96
  %22 = load ptr, ptr %21, align 8
  %.not15 = icmp eq ptr %22, null
  br i1 %.not15, label %45, label %23

23:                                               ; preds = %20
  %24 = tail call ptr @bit_copy(ptr noundef nonnull %22) #15
  store ptr %24, ptr %3, align 8
  %25 = tail call i32 @topology_g_whole_topo(ptr noundef %24) #15
  %26 = load ptr, ptr %18, align 8
  %27 = getelementptr inbounds nuw i8, ptr %26, i64 96
  %28 = load ptr, ptr %27, align 8
  tail call void @bit_and_not(ptr noundef %24, ptr noundef %28) #15
  call void @llvm.lifetime.start.p0(i64 4, ptr nonnull %4) #15
  store i32 0, ptr %4, align 4
  %29 = call ptr @next_node_bitmap(ptr noundef %24, ptr noundef nonnull %4) #15
  %.not1618 = icmp eq ptr %29, null
  br i1 %.not1618, label %._crit_edge, label %.lr.ph

.lr.ph:                                           ; preds = %23
  br i1 %1, label %.lr.ph.split.us, label %.lr.ph.split

.lr.ph.split.us:                                  ; preds = %.lr.ph, %.lr.ph.split.us
  %30 = phi ptr [ %36, %.lr.ph.split.us ], [ %29, %.lr.ph ]
  %31 = getelementptr inbounds nuw i8, ptr %30, i64 320
  %32 = load i32, ptr %31, align 8
  %33 = or i32 %32, 134217728
  store i32 %33, ptr %31, align 8
  %34 = load i32, ptr %4, align 4
  %35 = add nsw i32 %34, 1
  store i32 %35, ptr %4, align 4
  %36 = call ptr @next_node_bitmap(ptr noundef %24, ptr noundef nonnull %4) #15
  %.not16.us = icmp eq ptr %36, null
  br i1 %.not16.us, label %._crit_edge, label %.lr.ph.split.us, !llvm.loop !42

._crit_edge:                                      ; preds = %.lr.ph.split, %.lr.ph.split.us, %23
  call void @llvm.lifetime.end.p0(i64 4, ptr nonnull %4) #15
  %.not17 = icmp eq ptr %24, null
  br i1 %.not17, label %45, label %44

.lr.ph.split:                                     ; preds = %.lr.ph, %.lr.ph.split
  %37 = phi ptr [ %43, %.lr.ph.split ], [ %29, %.lr.ph ]
  %38 = getelementptr inbounds nuw i8, ptr %37, i64 320
  %39 = load i32, ptr %38, align 8
  %40 = and i32 %39, -134217729
  store i32 %40, ptr %38, align 8
  %41 = load i32, ptr %4, align 4
  %42 = add nsw i32 %41, 1
  store i32 %42, ptr %4, align 4
  %43 = call ptr @next_node_bitmap(ptr noundef %24, ptr noundef nonnull %4) #15
  %.not16 = icmp eq ptr %43, null
  br i1 %.not16, label %._crit_edge, label %.lr.ph.split, !llvm.loop !42

44:                                               ; preds = %._crit_edge
  call void @slurm_bit_free(ptr noundef nonnull %3) #15
  br label %45

45:                                               ; preds = %._crit_edge, %44, %17, %20, %10, %13
  call void @llvm.lifetime.end.p0(i64 8, ptr nonnull %3) #15
  ret void
}